; Function Attrs: null_pointer_is_valid sspstrong uwtable
define internal void @nas_emm_emm_inf(ptr noundef %0, ptr noundef %1, ptr noundef initializes((384, 388)) %2, i32 noundef %3, i32 noundef %4) #1 {
  %6 = getelementptr inbounds nuw i8, ptr %2, i64 384
  store i32 1, ptr %6, align 8
  %7 = icmp slt i32 %4, 1
  br i1 %7, label %39, label %8

8:                                                ; preds = %5
  %9 = tail call zeroext i16 @elem_tlv(ptr noundef %0, ptr noundef %1, ptr noundef %2, i8 noundef zeroext 67, i32 noundef 1, i32 noundef 8, i32 noundef %3, i32 noundef %4, ptr noundef nonnull @.str.1020)
  %10 = zext i16 %9 to i32
  %11 = sub nsw i32 %4, %10
  %12 = icmp slt i32 %11, 1
  br i1 %12, label %39, label %13

13:                                               ; preds = %8
  %14 = add i32 %3, %10
  %15 = tail call zeroext i16 @elem_tlv(ptr noundef %0, ptr noundef %1, ptr noundef %2, i8 noundef zeroext 69, i32 noundef 1, i32 noundef 8, i32 noundef %14, i32 noundef %11, ptr noundef nonnull @.str.1021)
  %16 = zext i16 %15 to i32
  %17 = sub nsw i32 %11, %16
  %18 = icmp slt i32 %17, 1
  br i1 %18, label %39, label %19

19:                                               ; preds = %13
  %20 = add i32 %14, %16
  %21 = tail call zeroext i16 @elem_tv(ptr noundef %0, ptr noundef %1, ptr noundef %2, i8 noundef zeroext 70, i32 noundef 1, i32 noundef 11, i32 noundef %20, ptr noundef nonnull @.str.1022)
  %22 = zext i16 %21 to i32
  %23 = sub nsw i32 %17, %22
  %24 = icmp slt i32 %23, 1
  br i1 %24, label %39, label %25

25:                                               ; preds = %19
  %26 = add i32 %20, %22
  %27 = tail call zeroext i16 @elem_tv(ptr noundef %0, ptr noundef %1, ptr noundef %2, i8 noundef zeroext 71, i32 noundef 1, i32 noundef 12, i32 noundef %26, ptr noundef nonnull @.str.1023)
  %28 = zext i16 %27 to i32
  %29 = sub nsw i32 %23, %28
  %30 = icmp slt i32 %29, 1
  br i1 %30, label %39, label %31

31:                                               ; preds = %25
  %32 = add i32 %26, %28
  %33 = tail call zeroext i16 @elem_tlv(ptr noundef %0, ptr noundef %1, ptr noundef %2, i8 noundef zeroext 73, i32 noundef 1, i32 noundef 15, i32 noundef %32, i32 noundef %29, ptr noundef null)
  %34 = zext i16 %33 to i32
  %.not73 = icmp eq i32 %29, %34
  br i1 %.not73, label %39, label %35

35:                                               ; preds = %31
  %36 = sub nsw i32 %29, %34
  %37 = add i32 %32, %34
  %38 = tail call ptr @proto_tree_add_expert(ptr noundef %1, ptr noundef %2, ptr noundef nonnull @ei_nas_eps_extraneous_data, ptr noundef %0, i32 noundef %37, i32 noundef %36)
  br label %39

39:                                               ; preds = %31, %35, %25, %19, %13, %8, %5
  ret void
}